; Function Attrs: mustprogress noreturn nounwind uwtable
define internal noalias noundef nonnull ptr @_ZN4node9inspector12_GLOBAL__N_117StartIoThreadMainEPv(ptr nocapture readnone %unused) #11 {
entry:
  tail call void @uv_sem_wait(ptr noundef nonnull @_ZN4node9inspector12_GLOBAL__N_125start_io_thread_semaphoreE) #23
  tail call void @uv_mutex_lock(ptr noundef nonnull @_ZN4node9inspector12_GLOBAL__N_127start_io_thread_async_mutexE) #23
  %0 = load atomic i8, ptr @_ZN4node9inspector12_GLOBAL__N_133start_io_thread_async_initializedE seq_cst, align 1
  %1 = and i8 %0, 1
  %tobool.i.i.not2 = icmp eq i8 %1, 0
  br i1 %tobool.i.i.not2, label %do.body3, label %do.end5

do.body3:                                         ; preds = %if.end7, %entry
  tail call void @_ZN4node6AssertERKNS_13AssertionInfoE(ptr noundef nonnull align 8 dereferenceable(24) @_ZZN4node9inspector12_GLOBAL__N_117StartIoThreadMainEPvE4args) #23
  tail call void @abort() #25
  unreachable

do.end5:                                          ; preds = %entry, %if.end7
  %2 = load ptr, ptr @_ZN4node9inspector12_GLOBAL__N_121start_io_thread_asyncE, align 8
  %cmp.not = icmp eq ptr %2, null
  br i1 %cmp.not, label %if.end7, label %if.then6

if.then6:                                         ; preds = %do.end5
  tail call void @_ZN4node9inspector5Agent20RequestIoThreadStartEv(ptr noundef nonnull align 8 dereferenceable(186) %2)
  br label %if.end7

if.end7:                                          ; preds = %if.then6, %do.end5
  tail call void @uv_mutex_unlock(ptr noundef nonnull @_ZN4node9inspector12_GLOBAL__N_127start_io_thread_async_mutexE) #23
  tail call void @uv_sem_wait(ptr noundef nonnull @_ZN4node9inspector12_GLOBAL__N_125start_io_thread_semaphoreE) #23
  tail call void @uv_mutex_lock(ptr noundef nonnull @_ZN4node9inspector12_GLOBAL__N_127start_io_thread_async_mutexE) #23
  %3 = load atomic i8, ptr @_ZN4node9inspector12_GLOBAL__N_133start_io_thread_async_initializedE seq_cst, align 1
  %4 = and i8 %3, 1
  %tobool.i.i.not = icmp eq i8 %4, 0
  br i1 %tobool.i.i.not, label %do.body3, label %do.end5, !llvm.loop !60
}